; ModuleID = '28/878.c'
source_filename = "28/878.c"
target datalayout = "e-m:e-p270:32:32-p271:32:32-p272:64:64-i64:64-f80:128-n8:16:32:64-S128"
target triple = "x86_64-pc-linux-gnu"

@.str = private unnamed_addr constant [3 x i8] c"%d\00", align 1
@.str.1 = private unnamed_addr constant [4 x i8] c"%d,\00", align 1

; Function Attrs: noinline nounwind uwtable
define dso_local i32 @main() #0 {
  %1 = alloca i32, align 4
  %2 = alloca i32, align 4
  %3 = alloca i32, align 4
  %4 = alloca [300 x i32], align 16
  %5 = alloca i32, align 4
  %6 = alloca [60000 x i8], align 16
  store i32 0, i32* %1, align 4
  store i32 0, i32* %5, align 4
  %7 = getelementptr inbounds [60000 x i8], [60000 x i8]* %6, i64 0, i64 0
  %8 = call i32 (i8*, ...) bitcast (i32 (...)* @gets to i32 (i8*, ...)*)(i8* %7)
  %9 = getelementptr inbounds [60000 x i8], [60000 x i8]* %6, i64 0, i64 0
  %10 = call i64 @strlen(i8* %9) #3
  %11 = trunc i64 %10 to i32
  store i32 %11, i32* %3, align 4
  store i32 0, i32* %2, align 4
  br label %12

12:                                               ; preds = %32, %0
  %13 = load i32, i32* %2, align 4
  %14 = load i32, i32* %3, align 4
  %15 = icmp slt i32 %13, %14
  br i1 %15, label %16, label %35

16:                                               ; preds = %12
  %17 = load i32, i32* %2, align 4
  %18 = sext i32 %17 to i64
  %19 = getelementptr inbounds [60000 x i8], [60000 x i8]* %6, i64 0, i64 %18
  %20 = load i8, i8* %19, align 1
  %21 = sext i8 %20 to i32
  %22 = icmp eq i32 %21, 32
  br i1 %22, label %23, label %31

23:                                               ; preds = %16
  %24 = load i32, i32* %5, align 4
  %25 = add nsw i32 %24, 1
  store i32 %25, i32* %5, align 4
  %26 = load i32, i32* %2, align 4
  %27 = load i32, i32* %5, align 4
  %28 = sub nsw i32 %27, 1
  %29 = sext i32 %28 to i64
  %30 = getelementptr inbounds [300 x i32], [300 x i32]* %4, i64 0, i64 %29
  store i32 %26, i32* %30, align 4
  br label %31

31:                                               ; preds = %23, %16
  br label %32

32:                                               ; preds = %31
  %33 = load i32, i32* %2, align 4
  %34 = add nsw i32 %33, 1
  store i32 %34, i32* %2, align 4
  br label %12

35:                                               ; preds = %12
  %36 = load i32, i32* %5, align 4
  %37 = icmp eq i32 %36, 0
  br i1 %37, label %38, label %41

38:                                               ; preds = %35
  %39 = load i32, i32* %3, align 4
  %40 = call i32 (i8*, ...) @printf(i8* getelementptr inbounds ([3 x i8], [3 x i8]* @.str, i64 0, i64 0), i32 %39)
  br label %41

41:                                               ; preds = %38, %35
  %42 = load i32, i32* %5, align 4
  %43 = icmp eq i32 %42, 1
  br i1 %43, label %44, label %67

44:                                               ; preds = %41
  %45 = getelementptr inbounds [300 x i32], [300 x i32]* %4, i64 0, i64 0
  %46 = load i32, i32* %45, align 16
  %47 = icmp ne i32 %46, 0
  br i1 %47, label %48, label %52

48:                                               ; preds = %44
  %49 = getelementptr inbounds [300 x i32], [300 x i32]* %4, i64 0, i64 0
  %50 = load i32, i32* %49, align 16
  %51 = call i32 (i8*, ...) @printf(i8* getelementptr inbounds ([4 x i8], [4 x i8]* @.str.1, i64 0, i64 0), i32 %50)
  br label %52

52:                                               ; preds = %48, %44
  %53 = load i32, i32* %3, align 4
  %54 = getelementptr inbounds [300 x i32], [300 x i32]* %4, i64 0, i64 0
  %55 = load i32, i32* %54, align 16
  %56 = sub nsw i32 %53, %55
  %57 = sub nsw i32 %56, 1
  %58 = icmp ne i32 %57, 0
  br i1 %58, label %59, label %66

59:                                               ; preds = %52
  %60 = load i32, i32* %3, align 4
  %61 = getelementptr inbounds [300 x i32], [300 x i32]* %4, i64 0, i64 0
  %62 = load i32, i32* %61, align 16
  %63 = sub nsw i32 %60, %62
  %64 = sub nsw i32 %63, 1
  %65 = call i32 (i8*, ...) @printf(i8* getelementptr inbounds ([3 x i8], [3 x i8]* @.str, i64 0, i64 0), i32 %64)
  br label %66

66:                                               ; preds = %59, %52
  br label %67

67:                                               ; preds = %66, %41
  %68 = load i32, i32* %5, align 4
  %69 = icmp sge i32 %68, 2
  br i1 %69, label %70, label %135

70:                                               ; preds = %67
  %71 = getelementptr inbounds [300 x i32], [300 x i32]* %4, i64 0, i64 0
  %72 = load i32, i32* %71, align 16
  %73 = icmp ne i32 %72, 0
  br i1 %73, label %74, label %78

74:                                               ; preds = %70
  %75 = getelementptr inbounds [300 x i32], [300 x i32]* %4, i64 0, i64 0
  %76 = load i32, i32* %75, align 16
  %77 = call i32 (i8*, ...) @printf(i8* getelementptr inbounds ([4 x i8], [4 x i8]* @.str.1, i64 0, i64 0), i32 %76)
  br label %78

78:                                               ; preds = %74, %70
  store i32 1, i32* %2, align 4
  br label %79

79:                                               ; preds = %111, %78
  %80 = load i32, i32* %2, align 4
  %81 = load i32, i32* %5, align 4
  %82 = sub nsw i32 %81, 1
  %83 = icmp sle i32 %80, %82
  br i1 %83, label %84, label %114

84:                                               ; preds = %79
  %85 = load i32, i32* %2, align 4
  %86 = sext i32 %85 to i64
  %87 = getelementptr inbounds [300 x i32], [300 x i32]* %4, i64 0, i64 %86
  %88 = load i32, i32* %87, align 4
  %89 = load i32, i32* %2, align 4
  %90 = sub nsw i32 %89, 1
  %91 = sext i32 %90 to i64
  %92 = getelementptr inbounds [300 x i32], [300 x i32]* %4, i64 0, i64 %91
  %93 = load i32, i32* %92, align 4
  %94 = sub nsw i32 %88, %93
  %95 = sub nsw i32 %94, 1
  %96 = icmp ne i32 %95, 0
  br i1 %96, label %97, label %110

97:                                               ; preds = %84
  %98 = load i32, i32* %2, align 4
  %99 = sext i32 %98 to i64
  %100 = getelementptr inbounds [300 x i32], [300 x i32]* %4, i64 0, i64 %99
  %101 = load i32, i32* %100, align 4
  %102 = load i32, i32* %2, align 4
  %103 = sub nsw i32 %102, 1
  %104 = sext i32 %103 to i64
  %105 = getelementptr inbounds [300 x i32], [300 x i32]* %4, i64 0, i64 %104
  %106 = load i32, i32* %105, align 4
  %107 = sub nsw i32 %101, %106
  %108 = sub nsw i32 %107, 1
  %109 = call i32 (i8*, ...) @printf(i8* getelementptr inbounds ([4 x i8], [4 x i8]* @.str.1, i64 0, i64 0), i32 %108)
  br label %110

110:                                              ; preds = %97, %84
  br label %111

111:                                              ; preds = %110
  %112 = load i32, i32* %2, align 4
  %113 = add nsw i32 %112, 1
  store i32 %113, i32* %2, align 4
  br label %79

114:                                              ; preds = %79
  %115 = load i32, i32* %3, align 4
  %116 = load i32, i32* %5, align 4
  %117 = sub nsw i32 %116, 1
  %118 = sext i32 %117 to i64
  %119 = getelementptr inbounds [300 x i32], [300 x i32]* %4, i64 0, i64 %118
  %120 = load i32, i32* %119, align 4
  %121 = sub nsw i32 %115, %120
  %122 = sub nsw i32 %121, 1
  %123 = icmp ne i32 %122, 0
  br i1 %123, label %124, label %134

124:                                              ; preds = %114
  %125 = load i32, i32* %3, align 4
  %126 = load i32, i32* %5, align 4
  %127 = sub nsw i32 %126, 1
  %128 = sext i32 %127 to i64
  %129 = getelementptr inbounds [300 x i32], [300 x i32]* %4, i64 0, i64 %128
  %130 = load i32, i32* %129, align 4
  %131 = sub nsw i32 %125, %130
  %132 = sub nsw i32 %131, 1
  %133 = call i32 (i8*, ...) @printf(i8* getelementptr inbounds ([3 x i8], [3 x i8]* @.str, i64 0, i64 0), i32 %132)
  br label %134

134:                                              ; preds = %124, %114
  br label %135

135:                                              ; preds = %134, %67
  ret i32 0
}

declare dso_local i32 @gets(...) #1

; Function Attrs: nounwind readonly
declare dso_local i64 @strlen(i8*) #2

declare dso_local i32 @printf(i8*, ...) #1


!llvm.module.flags = !{!0}
!llvm.ident = !{!1}

!0 = !{i32 1, !"wchar_size", i32 4}
!1 = !{!"clang version 10.0.0-4ubuntu1 "}
